; ModuleID = '57/861.c'
source_filename = "57/861.c"
target datalayout = "e-m:e-p270:32:32-p271:32:32-p272:64:64-i64:64-f80:128-n8:16:32:64-S128"
target triple = "x86_64-pc-linux-gnu"

@.str = private unnamed_addr constant [3 x i8] c"%d\00", align 1
@.str.1 = private unnamed_addr constant [3 x i8] c"%s\00", align 1
@.str.2 = private unnamed_addr constant [4 x i8] c"%s\0A\00", align 1

; Function Attrs: noinline nounwind uwtable
define dso_local i32 @main() #0 {
  %1 = alloca i32, align 4
  %2 = alloca i32, align 4
  %3 = alloca i32, align 4
  %4 = alloca i32, align 4
  %5 = alloca [100 x [260 x i8]], align 16
  store i32 0, i32* %1, align 4
  %6 = call i32 (i8*, ...) @__isoc99_scanf(i8* getelementptr inbounds ([3 x i8], [3 x i8]* @.str, i64 0, i64 0), i32* %2)
  store i32 0, i32* %3, align 4
  br label %7

7:                                                ; preds = %17, %0
  %8 = load i32, i32* %3, align 4
  %9 = load i32, i32* %2, align 4
  %10 = icmp slt i32 %8, %9
  br i1 %10, label %11, label %20

11:                                               ; preds = %7
  %12 = load i32, i32* %3, align 4
  %13 = sext i32 %12 to i64
  %14 = getelementptr inbounds [100 x [260 x i8]], [100 x [260 x i8]]* %5, i64 0, i64 %13
  %15 = getelementptr inbounds [260 x i8], [260 x i8]* %14, i64 0, i64 0
  %16 = call i32 (i8*, ...) @__isoc99_scanf(i8* getelementptr inbounds ([3 x i8], [3 x i8]* @.str.1, i64 0, i64 0), i8* %15)
  br label %17

17:                                               ; preds = %11
  %18 = load i32, i32* %3, align 4
  %19 = add nsw i32 %18, 1
  store i32 %19, i32* %3, align 4
  br label %7

20:                                               ; preds = %7
  store i32 0, i32* %3, align 4
  br label %21

21:                                               ; preds = %174, %20
  %22 = load i32, i32* %3, align 4
  %23 = load i32, i32* %2, align 4
  %24 = icmp slt i32 %22, %23
  br i1 %24, label %25, label %177

25:                                               ; preds = %21
  store i32 0, i32* %4, align 4
  br label %26

26:                                               ; preds = %170, %25
  %27 = load i32, i32* %3, align 4
  %28 = sext i32 %27 to i64
  %29 = getelementptr inbounds [100 x [260 x i8]], [100 x [260 x i8]]* %5, i64 0, i64 %28
  %30 = load i32, i32* %4, align 4
  %31 = sext i32 %30 to i64
  %32 = getelementptr inbounds [260 x i8], [260 x i8]* %29, i64 0, i64 %31
  %33 = load i8, i8* %32, align 1
  %34 = sext i8 %33 to i32
  %35 = icmp ne i32 %34, 9
  br i1 %35, label %36, label %173

36:                                               ; preds = %26
  %37 = load i32, i32* %3, align 4
  %38 = sext i32 %37 to i64
  %39 = getelementptr inbounds [100 x [260 x i8]], [100 x [260 x i8]]* %5, i64 0, i64 %38
  %40 = load i32, i32* %4, align 4
  %41 = sub nsw i32 %40, 2
  %42 = sext i32 %41 to i64
  %43 = getelementptr inbounds [260 x i8], [260 x i8]* %39, i64 0, i64 %42
  %44 = load i8, i8* %43, align 1
  %45 = sext i8 %44 to i32
  %46 = icmp eq i32 %45, 108
  br i1 %46, label %47, label %76

47:                                               ; preds = %36
  %48 = load i32, i32* %3, align 4
  %49 = sext i32 %48 to i64
  %50 = getelementptr inbounds [100 x [260 x i8]], [100 x [260 x i8]]* %5, i64 0, i64 %49
  %51 = load i32, i32* %4, align 4
  %52 = sub nsw i32 %51, 1
  %53 = sext i32 %52 to i64
  %54 = getelementptr inbounds [260 x i8], [260 x i8]* %50, i64 0, i64 %53
  %55 = load i8, i8* %54, align 1
  %56 = sext i8 %55 to i32
  %57 = icmp eq i32 %56, 121
  br i1 %57, label %58, label %76

58:                                               ; preds = %47
  %59 = load i32, i32* %3, align 4
  %60 = sext i32 %59 to i64
  %61 = getelementptr inbounds [100 x [260 x i8]], [100 x [260 x i8]]* %5, i64 0, i64 %60
  %62 = load i32, i32* %4, align 4
  %63 = sext i32 %62 to i64
  %64 = getelementptr inbounds [260 x i8], [260 x i8]* %61, i64 0, i64 %63
  %65 = load i8, i8* %64, align 1
  %66 = sext i8 %65 to i32
  %67 = icmp eq i32 %66, 0
  br i1 %67, label %68, label %76

68:                                               ; preds = %58
  %69 = load i32, i32* %3, align 4
  %70 = sext i32 %69 to i64
  %71 = getelementptr inbounds [100 x [260 x i8]], [100 x [260 x i8]]* %5, i64 0, i64 %70
  %72 = load i32, i32* %4, align 4
  %73 = sub nsw i32 %72, 2
  %74 = sext i32 %73 to i64
  %75 = getelementptr inbounds [260 x i8], [260 x i8]* %71, i64 0, i64 %74
  store i8 0, i8* %75, align 1
  br label %169

76:                                               ; preds = %58, %47, %36
  %77 = load i32, i32* %3, align 4
  %78 = sext i32 %77 to i64
  %79 = getelementptr inbounds [100 x [260 x i8]], [100 x [260 x i8]]* %5, i64 0, i64 %78
  %80 = load i32, i32* %4, align 4
  %81 = sub nsw i32 %80, 2
  %82 = sext i32 %81 to i64
  %83 = getelementptr inbounds [260 x i8], [260 x i8]* %79, i64 0, i64 %82
  %84 = load i8, i8* %83, align 1
  %85 = sext i8 %84 to i32
  %86 = icmp eq i32 %85, 101
  br i1 %86, label %87, label %116

87:                                               ; preds = %76
  %88 = load i32, i32* %3, align 4
  %89 = sext i32 %88 to i64
  %90 = getelementptr inbounds [100 x [260 x i8]], [100 x [260 x i8]]* %5, i64 0, i64 %89
  %91 = load i32, i32* %4, align 4
  %92 = sub nsw i32 %91, 1
  %93 = sext i32 %92 to i64
  %94 = getelementptr inbounds [260 x i8], [260 x i8]* %90, i64 0, i64 %93
  %95 = load i8, i8* %94, align 1
  %96 = sext i8 %95 to i32
  %97 = icmp eq i32 %96, 114
  br i1 %97, label %98, label %116

98:                                               ; preds = %87
  %99 = load i32, i32* %3, align 4
  %100 = sext i32 %99 to i64
  %101 = getelementptr inbounds [100 x [260 x i8]], [100 x [260 x i8]]* %5, i64 0, i64 %100
  %102 = load i32, i32* %4, align 4
  %103 = sext i32 %102 to i64
  %104 = getelementptr inbounds [260 x i8], [260 x i8]* %101, i64 0, i64 %103
  %105 = load i8, i8* %104, align 1
  %106 = sext i8 %105 to i32
  %107 = icmp eq i32 %106, 0
  br i1 %107, label %108, label %116

108:                                              ; preds = %98
  %109 = load i32, i32* %3, align 4
  %110 = sext i32 %109 to i64
  %111 = getelementptr inbounds [100 x [260 x i8]], [100 x [260 x i8]]* %5, i64 0, i64 %110
  %112 = load i32, i32* %4, align 4
  %113 = sub nsw i32 %112, 2
  %114 = sext i32 %113 to i64
  %115 = getelementptr inbounds [260 x i8], [260 x i8]* %111, i64 0, i64 %114
  store i8 0, i8* %115, align 1
  br label %168

116:                                              ; preds = %98, %87, %76
  %117 = load i32, i32* %3, align 4
  %118 = sext i32 %117 to i64
  %119 = getelementptr inbounds [100 x [260 x i8]], [100 x [260 x i8]]* %5, i64 0, i64 %118
  %120 = load i32, i32* %4, align 4
  %121 = sub nsw i32 %120, 3
  %122 = sext i32 %121 to i64
  %123 = getelementptr inbounds [260 x i8], [260 x i8]* %119, i64 0, i64 %122
  %124 = load i8, i8* %123, align 1
  %125 = sext i8 %124 to i32
  %126 = icmp eq i32 %125, 105
  br i1 %126, label %127, label %167

127:                                              ; preds = %116
  %128 = load i32, i32* %3, align 4
  %129 = sext i32 %128 to i64
  %130 = getelementptr inbounds [100 x [260 x i8]], [100 x [260 x i8]]* %5, i64 0, i64 %129
  %131 = load i32, i32* %4, align 4
  %132 = sub nsw i32 %131, 2
  %133 = sext i32 %132 to i64
  %134 = getelementptr inbounds [260 x i8], [260 x i8]* %130, i64 0, i64 %133
  %135 = load i8, i8* %134, align 1
  %136 = sext i8 %135 to i32
  %137 = icmp eq i32 %136, 110
  br i1 %137, label %138, label %167

138:                                              ; preds = %127
  %139 = load i32, i32* %3, align 4
  %140 = sext i32 %139 to i64
  %141 = getelementptr inbounds [100 x [260 x i8]], [100 x [260 x i8]]* %5, i64 0, i64 %140
  %142 = load i32, i32* %4, align 4
  %143 = sub nsw i32 %142, 1
  %144 = sext i32 %143 to i64
  %145 = getelementptr inbounds [260 x i8], [260 x i8]* %141, i64 0, i64 %144
  %146 = load i8, i8* %145, align 1
  %147 = sext i8 %146 to i32
  %148 = icmp eq i32 %147, 103
  br i1 %148, label %149, label %167

149:                                              ; preds = %138
  %150 = load i32, i32* %3, align 4
  %151 = sext i32 %150 to i64
  %152 = getelementptr inbounds [100 x [260 x i8]], [100 x [260 x i8]]* %5, i64 0, i64 %151
  %153 = load i32, i32* %4, align 4
  %154 = sext i32 %153 to i64
  %155 = getelementptr inbounds [260 x i8], [260 x i8]* %152, i64 0, i64 %154
  %156 = load i8, i8* %155, align 1
  %157 = sext i8 %156 to i32
  %158 = icmp eq i32 %157, 0
  br i1 %158, label %159, label %167

159:                                              ; preds = %149
  %160 = load i32, i32* %3, align 4
  %161 = sext i32 %160 to i64
  %162 = getelementptr inbounds [100 x [260 x i8]], [100 x [260 x i8]]* %5, i64 0, i64 %161
  %163 = load i32, i32* %4, align 4
  %164 = sub nsw i32 %163, 3
  %165 = sext i32 %164 to i64
  %166 = getelementptr inbounds [260 x i8], [260 x i8]* %162, i64 0, i64 %165
  store i8 0, i8* %166, align 1
  br label %167

167:                                              ; preds = %159, %149, %138, %127, %116
  br label %168

168:                                              ; preds = %167, %108
  br label %169

169:                                              ; preds = %168, %68
  br label %170

170:                                              ; preds = %169
  %171 = load i32, i32* %4, align 4
  %172 = add nsw i32 %171, 1
  store i32 %172, i32* %4, align 4
  br label %26

173:                                              ; preds = %26
  br label %174

174:                                              ; preds = %173
  %175 = load i32, i32* %3, align 4
  %176 = add nsw i32 %175, 1
  store i32 %176, i32* %3, align 4
  br label %21

177:                                              ; preds = %21
  store i32 0, i32* %3, align 4
  br label %178

178:                                              ; preds = %188, %177
  %179 = load i32, i32* %3, align 4
  %180 = load i32, i32* %2, align 4
  %181 = icmp slt i32 %179, %180
  br i1 %181, label %182, label %191

182:                                              ; preds = %178
  %183 = load i32, i32* %3, align 4
  %184 = sext i32 %183 to i64
  %185 = getelementptr inbounds [100 x [260 x i8]], [100 x [260 x i8]]* %5, i64 0, i64 %184
  %186 = getelementptr inbounds [260 x i8], [260 x i8]* %185, i64 0, i64 0
  %187 = call i32 (i8*, ...) @printf(i8* getelementptr inbounds ([4 x i8], [4 x i8]* @.str.2, i64 0, i64 0), i8* %186)
  br label %188

188:                                              ; preds = %182
  %189 = load i32, i32* %3, align 4
  %190 = add nsw i32 %189, 1
  store i32 %190, i32* %3, align 4
  br label %178

191:                                              ; preds = %178
  ret i32 0
}

declare dso_local i32 @__isoc99_scanf(i8*, ...) #1

declare dso_local i32 @printf(i8*, ...) #1


!llvm.module.flags = !{!0}
!llvm.ident = !{!1}

!0 = !{i32 1, !"wchar_size", i32 4}
!1 = !{!"clang version 10.0.0-4ubuntu1 "}
